target datalayout = "e-m:e-p270:32:32-p271:32:32-p272:64:64-i64:64-i128:128-f80:128-n8:16:32:64-S128"
target triple = "x86_64-pc-linux-gnu"

%struct.KDF_HKDF = type { ptr, i32, %struct.PROV_DIGEST, ptr, i64, ptr, i64, ptr, i64, ptr, i64, ptr, i64, ptr, i64 }
%struct.PROV_DIGEST = type { ptr, ptr, ptr }
%struct.ossl_param_st = type { ptr, i32, ptr, i64, i64 }

@.str = private unnamed_addr constant [49 x i8] c"../openssl/providers/implementations/kdfs/hkdf.c\00", align 1
@__func__.kdf_hkdf_derive = private unnamed_addr constant [16 x i8] c"kdf_hkdf_derive\00", align 1
@.str.7 = private unnamed_addr constant [5 x i8] c"info\00", align 1

; Function Attrs: inlinehint nounwind uwtable
define internal i32 @ossl_param_is_empty(ptr noundef %0) #5 {
  %2 = alloca ptr, align 8
  store ptr %0, ptr %2, align 8, !tbaa !30
  %3 = load ptr, ptr %2, align 8, !tbaa !30
  %4 = icmp eq ptr %3, null
  br i1 %4, label %10, label %5

5:                                                ; preds = %1
  %6 = load ptr, ptr %2, align 8, !tbaa !30
  %7 = getelementptr inbounds nuw %struct.ossl_param_st, ptr %6, i32 0, i32 0
  %8 = load ptr, ptr %7, align 8, !tbaa !41
  %9 = icmp eq ptr %8, null
  br label %10

10:                                               ; preds = %5, %1
  %11 = phi i1 [ true, %1 ], [ %9, %5 ]
  %12 = zext i1 %11 to i32
  ret i32 %12
}

; Function Attrs: nounwind uwtable
define internal i32 @HKDF(ptr noundef %0, ptr noundef %1, ptr noundef %2, i64 noundef %3, ptr noundef %4, i64 noundef %5, ptr noundef %6, i64 noundef %7, ptr noundef %8, i64 noundef %9) #0 {
  %11 = alloca i32, align 4
  %12 = alloca ptr, align 8
  %13 = alloca ptr, align 8
  %14 = alloca ptr, align 8
  %15 = alloca i64, align 8
  %16 = alloca ptr, align 8
  %17 = alloca i64, align 8
  %18 = alloca ptr, align 8
  %19 = alloca i64, align 8
  %20 = alloca ptr, align 8
  %21 = alloca i64, align 8
  %22 = alloca [64 x i8], align 16
  %23 = alloca i32, align 4
  %24 = alloca i32, align 4
  %25 = alloca i64, align 8
  %26 = alloca i32, align 4
  store ptr %0, ptr %12, align 8, !tbaa !32
  store ptr %1, ptr %13, align 8, !tbaa !34
  store ptr %2, ptr %14, align 8, !tbaa !28
  store i64 %3, ptr %15, align 8, !tbaa !29
  store ptr %4, ptr %16, align 8, !tbaa !28
  store i64 %5, ptr %17, align 8, !tbaa !29
  store ptr %6, ptr %18, align 8, !tbaa !28
  store i64 %7, ptr %19, align 8, !tbaa !29
  store ptr %8, ptr %20, align 8, !tbaa !28
  store i64 %9, ptr %21, align 8, !tbaa !29
  call void @llvm.lifetime.start.p0(i64 64, ptr %22) #6
  call void @llvm.lifetime.start.p0(i64 4, ptr %23) #6
  call void @llvm.lifetime.start.p0(i64 4, ptr %24) #6
  call void @llvm.lifetime.start.p0(i64 8, ptr %25) #6
  %27 = load ptr, ptr %13, align 8, !tbaa !34
  %28 = call i32 @EVP_MD_get_size(ptr noundef %27)
  store i32 %28, ptr %24, align 4, !tbaa !35
  %29 = load i32, ptr %24, align 4, !tbaa !35
  %30 = icmp sle i32 %29, 0
  br i1 %30, label %31, label %32

31:                                               ; preds = %10
  store i32 0, ptr %11, align 4
  store i32 1, ptr %26, align 4
  br label %57

32:                                               ; preds = %10
  %33 = load i32, ptr %24, align 4, !tbaa !35
  %34 = sext i32 %33 to i64
  store i64 %34, ptr %25, align 8, !tbaa !29
  %35 = load ptr, ptr %12, align 8, !tbaa !32
  %36 = load ptr, ptr %13, align 8, !tbaa !34
  %37 = load ptr, ptr %14, align 8, !tbaa !28
  %38 = load i64, ptr %15, align 8, !tbaa !29
  %39 = load ptr, ptr %16, align 8, !tbaa !28
  %40 = load i64, ptr %17, align 8, !tbaa !29
  %41 = getelementptr inbounds [64 x i8], ptr %22, i64 0, i64 0
  %42 = load i64, ptr %25, align 8, !tbaa !29
  %43 = call i32 @HKDF_Extract(ptr noundef %35, ptr noundef %36, ptr noundef %37, i64 noundef %38, ptr noundef %39, i64 noundef %40, ptr noundef %41, i64 noundef %42)
  %44 = icmp ne i32 %43, 0
  br i1 %44, label %46, label %45

45:                                               ; preds = %32
  store i32 0, ptr %11, align 4
  store i32 1, ptr %26, align 4
  br label %57

46:                                               ; preds = %32
  %47 = load ptr, ptr %13, align 8, !tbaa !34
  %48 = getelementptr inbounds [64 x i8], ptr %22, i64 0, i64 0
  %49 = load i64, ptr %25, align 8, !tbaa !29
  %50 = load ptr, ptr %18, align 8, !tbaa !28
  %51 = load i64, ptr %19, align 8, !tbaa !29
  %52 = load ptr, ptr %20, align 8, !tbaa !28
  %53 = load i64, ptr %21, align 8, !tbaa !29
  %54 = call i32 @HKDF_Expand(ptr noundef %47, ptr noundef %48, i64 noundef %49, ptr noundef %50, i64 noundef %51, ptr noundef %52, i64 noundef %53)
  store i32 %54, ptr %23, align 4, !tbaa !35
  %55 = getelementptr inbounds [64 x i8], ptr %22, i64 0, i64 0
  call void @OPENSSL_cleanse(ptr noundef %55, i64 noundef 64)
  %56 = load i32, ptr %23, align 4, !tbaa !35
  store i32 %56, ptr %11, align 4
  store i32 1, ptr %26, align 4
  br label %57

57:                                               ; preds = %46, %45, %31
  call void @llvm.lifetime.end.p0(i64 8, ptr %25) #6
  call void @llvm.lifetime.end.p0(i64 4, ptr %24) #6
  call void @llvm.lifetime.end.p0(i64 4, ptr %23) #6
  call void @llvm.lifetime.end.p0(i64 64, ptr %22) #6
  %58 = load i32, ptr %11, align 4
  ret i32 %58
}

; Function Attrs: nounwind uwtable
define internal i32 @kdf_hkdf_set_ctx_params(ptr noundef %0, ptr noundef %1) #0 {
  %3 = alloca i32, align 4
  %4 = alloca ptr, align 8
  %5 = alloca ptr, align 8
  %6 = alloca ptr, align 8
  %7 = alloca i32, align 4
  store ptr %0, ptr %4, align 8, !tbaa !3
  store ptr %1, ptr %5, align 8, !tbaa !30
  call void @llvm.lifetime.start.p0(i64 8, ptr %6) #6
  %8 = load ptr, ptr %4, align 8, !tbaa !3
  store ptr %8, ptr %6, align 8, !tbaa !3
  %9 = load ptr, ptr %5, align 8, !tbaa !30
  %10 = call i32 @ossl_param_is_empty(ptr noundef %9)
  %11 = icmp ne i32 %10, 0
  br i1 %11, label %12, label %13

12:                                               ; preds = %2
  store i32 1, ptr %3, align 4
  store i32 1, ptr %7, align 4
  br label %29

13:                                               ; preds = %2
  %14 = load ptr, ptr %6, align 8, !tbaa !3
  %15 = load ptr, ptr %5, align 8, !tbaa !30
  %16 = call i32 @hkdf_common_set_ctx_params(ptr noundef %14, ptr noundef %15)
  %17 = icmp ne i32 %16, 0
  br i1 %17, label %19, label %18

18:                                               ; preds = %13
  store i32 0, ptr %3, align 4
  store i32 1, ptr %7, align 4
  br label %29

19:                                               ; preds = %13
  %20 = load ptr, ptr %5, align 8, !tbaa !30
  %21 = load ptr, ptr %6, align 8, !tbaa !3
  %22 = getelementptr inbounds nuw %struct.KDF_HKDF, ptr %21, i32 0, i32 13
  %23 = load ptr, ptr %6, align 8, !tbaa !3
  %24 = getelementptr inbounds nuw %struct.KDF_HKDF, ptr %23, i32 0, i32 14
  %25 = call i32 @ossl_param_get1_concat_octet_string(ptr noundef %20, ptr noundef @.str.7, ptr noundef %22, ptr noundef %24, i64 noundef 32768)
  %26 = icmp eq i32 %25, 0
  br i1 %26, label %27, label %28

27:                                               ; preds = %19
  store i32 0, ptr %3, align 4
  store i32 1, ptr %7, align 4
  br label %29

28:                                               ; preds = %19
  store i32 1, ptr %3, align 4
  store i32 1, ptr %7, align 4
  br label %29

29:                                               ; preds = %28, %27, %18, %12
  call void @llvm.lifetime.end.p0(i64 8, ptr %6) #6
  %30 = load i32, ptr %3, align 4
  ret i32 %30
}

; Function Attrs: nounwind uwtable
define internal i32 @kdf_hkdf_derive(ptr noundef %0, ptr noundef %1, i64 noundef %2, ptr noundef %3) #0 {
  %5 = alloca i32, align 4
  %6 = alloca ptr, align 8
  %7 = alloca ptr, align 8
  %8 = alloca i64, align 8
  %9 = alloca ptr, align 8
  %10 = alloca ptr, align 8
  %11 = alloca ptr, align 8
  %12 = alloca ptr, align 8
  %13 = alloca i32, align 4
  store ptr %0, ptr %6, align 8, !tbaa !3
  store ptr %1, ptr %7, align 8, !tbaa !28
  store i64 %2, ptr %8, align 8, !tbaa !29
  store ptr %3, ptr %9, align 8, !tbaa !30
  call void @llvm.lifetime.start.p0(i64 8, ptr %10) #6
  %14 = load ptr, ptr %6, align 8, !tbaa !3
  store ptr %14, ptr %10, align 8, !tbaa !3
  call void @llvm.lifetime.start.p0(i64 8, ptr %11) #6
  %15 = load ptr, ptr %10, align 8, !tbaa !3
  %16 = getelementptr inbounds nuw %struct.KDF_HKDF, ptr %15, i32 0, i32 0
  %17 = load ptr, ptr %16, align 8, !tbaa !7
  %18 = call ptr @ossl_prov_ctx_get0_libctx(ptr noundef %17)
  store ptr %18, ptr %11, align 8, !tbaa !32
  call void @llvm.lifetime.start.p0(i64 8, ptr %12) #6
  %19 = call i32 @ossl_prov_is_running()
  %20 = icmp ne i32 %19, 0
  br i1 %20, label %21, label %26

21:                                               ; preds = %4
  %22 = load ptr, ptr %10, align 8, !tbaa !3
  %23 = load ptr, ptr %9, align 8, !tbaa !30
  %24 = call i32 @kdf_hkdf_set_ctx_params(ptr noundef %22, ptr noundef %23)
  %25 = icmp ne i32 %24, 0
  br i1 %25, label %27, label %26

26:                                               ; preds = %21, %4
  store i32 0, ptr %5, align 4
  store i32 1, ptr %13, align 4
  br label %108

27:                                               ; preds = %21
  %28 = load ptr, ptr %10, align 8, !tbaa !3
  %29 = getelementptr inbounds nuw %struct.KDF_HKDF, ptr %28, i32 0, i32 2
  %30 = call ptr @ossl_prov_digest_md(ptr noundef %29)
  store ptr %30, ptr %12, align 8, !tbaa !34
  %31 = load ptr, ptr %12, align 8, !tbaa !34
  %32 = icmp eq ptr %31, null
  br i1 %32, label %33, label %34

33:                                               ; preds = %27
  call void @ERR_new()
  call void @ERR_set_debug(ptr noundef @.str, i32 noundef 225, ptr noundef @__func__.kdf_hkdf_derive)
  call void (i32, i32, ptr, ...) @ERR_set_error(i32 noundef 57, i32 noundef 129, ptr noundef null)
  store i32 0, ptr %5, align 4
  store i32 1, ptr %13, align 4
  br label %108

34:                                               ; preds = %27
  %35 = load ptr, ptr %10, align 8, !tbaa !3
  %36 = getelementptr inbounds nuw %struct.KDF_HKDF, ptr %35, i32 0, i32 5
  %37 = load ptr, ptr %36, align 8, !tbaa !17
  %38 = icmp eq ptr %37, null
  br i1 %38, label %39, label %40

39:                                               ; preds = %34
  call void @ERR_new()
  call void @ERR_set_debug(ptr noundef @.str, i32 noundef 229, ptr noundef @__func__.kdf_hkdf_derive)
  call void (i32, i32, ptr, ...) @ERR_set_error(i32 noundef 57, i32 noundef 128, ptr noundef null)
  store i32 0, ptr %5, align 4
  store i32 1, ptr %13, align 4
  br label %108

40:                                               ; preds = %34
  %41 = load i64, ptr %8, align 8, !tbaa !29
  %42 = icmp eq i64 %41, 0
  br i1 %42, label %43, label %44

43:                                               ; preds = %40
  call void @ERR_new()
  call void @ERR_set_debug(ptr noundef @.str, i32 noundef 233, ptr noundef @__func__.kdf_hkdf_derive)
  call void (i32, i32, ptr, ...) @ERR_set_error(i32 noundef 57, i32 noundef 105, ptr noundef null)
  store i32 0, ptr %5, align 4
  store i32 1, ptr %13, align 4
  br label %108

44:                                               ; preds = %40
  %45 = load ptr, ptr %10, align 8, !tbaa !3
  %46 = getelementptr inbounds nuw %struct.KDF_HKDF, ptr %45, i32 0, i32 1
  %47 = load i32, ptr %46, align 8, !tbaa !27
  switch i32 %47, label %49 [
    i32 0, label %48
    i32 1, label %73
    i32 2, label %91
  ]

48:                                               ; preds = %44
  br label %49

49:                                               ; preds = %44, %48
  %50 = load ptr, ptr %11, align 8, !tbaa !32
  %51 = load ptr, ptr %12, align 8, !tbaa !34
  %52 = load ptr, ptr %10, align 8, !tbaa !3
  %53 = getelementptr inbounds nuw %struct.KDF_HKDF, ptr %52, i32 0, i32 3
  %54 = load ptr, ptr %53, align 8, !tbaa !15
  %55 = load ptr, ptr %10, align 8, !tbaa !3
  %56 = getelementptr inbounds nuw %struct.KDF_HKDF, ptr %55, i32 0, i32 4
  %57 = load i64, ptr %56, align 8, !tbaa !16
  %58 = load ptr, ptr %10, align 8, !tbaa !3
  %59 = getelementptr inbounds nuw %struct.KDF_HKDF, ptr %58, i32 0, i32 5
  %60 = load ptr, ptr %59, align 8, !tbaa !17
  %61 = load ptr, ptr %10, align 8, !tbaa !3
  %62 = getelementptr inbounds nuw %struct.KDF_HKDF, ptr %61, i32 0, i32 6
  %63 = load i64, ptr %62, align 8, !tbaa !18
  %64 = load ptr, ptr %10, align 8, !tbaa !3
  %65 = getelementptr inbounds nuw %struct.KDF_HKDF, ptr %64, i32 0, i32 13
  %66 = load ptr, ptr %65, align 8, !tbaa !25
  %67 = load ptr, ptr %10, align 8, !tbaa !3
  %68 = getelementptr inbounds nuw %struct.KDF_HKDF, ptr %67, i32 0, i32 14
  %69 = load i64, ptr %68, align 8, !tbaa !26
  %70 = load ptr, ptr %7, align 8, !tbaa !28
  %71 = load i64, ptr %8, align 8, !tbaa !29
  %72 = call i32 @HKDF(ptr noundef %50, ptr noundef %51, ptr noundef %54, i64 noundef %57, ptr noundef %60, i64 noundef %63, ptr noundef %66, i64 noundef %69, ptr noundef %70, i64 noundef %71)
  store i32 %72, ptr %5, align 4
  store i32 1, ptr %13, align 4
  br label %108

73:                                               ; preds = %44
  %74 = load ptr, ptr %11, align 8, !tbaa !32
  %75 = load ptr, ptr %12, align 8, !tbaa !34
  %76 = load ptr, ptr %10, align 8, !tbaa !3
  %77 = getelementptr inbounds nuw %struct.KDF_HKDF, ptr %76, i32 0, i32 3
  %78 = load ptr, ptr %77, align 8, !tbaa !15
  %79 = load ptr, ptr %10, align 8, !tbaa !3
  %80 = getelementptr inbounds nuw %struct.KDF_HKDF, ptr %79, i32 0, i32 4
  %81 = load i64, ptr %80, align 8, !tbaa !16
  %82 = load ptr, ptr %10, align 8, !tbaa !3
  %83 = getelementptr inbounds nuw %struct.KDF_HKDF, ptr %82, i32 0, i32 5
  %84 = load ptr, ptr %83, align 8, !tbaa !17
  %85 = load ptr, ptr %10, align 8, !tbaa !3
  %86 = getelementptr inbounds nuw %struct.KDF_HKDF, ptr %85, i32 0, i32 6
  %87 = load i64, ptr %86, align 8, !tbaa !18
  %88 = load ptr, ptr %7, align 8, !tbaa !28
  %89 = load i64, ptr %8, align 8, !tbaa !29
  %90 = call i32 @HKDF_Extract(ptr noundef %74, ptr noundef %75, ptr noundef %78, i64 noundef %81, ptr noundef %84, i64 noundef %87, ptr noundef %88, i64 noundef %89)
  store i32 %90, ptr %5, align 4
  store i32 1, ptr %13, align 4
  br label %108

91:                                               ; preds = %44
  %92 = load ptr, ptr %12, align 8, !tbaa !34
  %93 = load ptr, ptr %10, align 8, !tbaa !3
  %94 = getelementptr inbounds nuw %struct.KDF_HKDF, ptr %93, i32 0, i32 5
  %95 = load ptr, ptr %94, align 8, !tbaa !17
  %96 = load ptr, ptr %10, align 8, !tbaa !3
  %97 = getelementptr inbounds nuw %struct.KDF_HKDF, ptr %96, i32 0, i32 6
  %98 = load i64, ptr %97, align 8, !tbaa !18
  %99 = load ptr, ptr %10, align 8, !tbaa !3
  %100 = getelementptr inbounds nuw %struct.KDF_HKDF, ptr %99, i32 0, i32 13
  %101 = load ptr, ptr %100, align 8, !tbaa !25
  %102 = load ptr, ptr %10, align 8, !tbaa !3
  %103 = getelementptr inbounds nuw %struct.KDF_HKDF, ptr %102, i32 0, i32 14
  %104 = load i64, ptr %103, align 8, !tbaa !26
  %105 = load ptr, ptr %7, align 8, !tbaa !28
  %106 = load i64, ptr %8, align 8, !tbaa !29
  %107 = call i32 @HKDF_Expand(ptr noundef %92, ptr noundef %95, i64 noundef %98, ptr noundef %101, i64 noundef %104, ptr noundef %105, i64 noundef %106)
  store i32 %107, ptr %5, align 4
  store i32 1, ptr %13, align 4
  br label %108

108:                                              ; preds = %91, %73, %49, %43, %39, %33, %26
  call void @llvm.lifetime.end.p0(i64 8, ptr %12) #6
  call void @llvm.lifetime.end.p0(i64 8, ptr %11) #6
  call void @llvm.lifetime.end.p0(i64 8, ptr %10) #6
  %109 = load i32, ptr %5, align 4
  ret i32 %109
}