; Function Attrs: nounwind uwtable
define internal range(i32 0, 2) i32 @kdf_hkdf_derive(ptr noundef %0, ptr noundef %1, i64 noundef %2, ptr noundef %3) #0 {
  %5 = alloca [64 x i8], align 16
  %6 = load ptr, ptr %0, align 8, !tbaa !3
  %7 = tail call ptr @ossl_prov_ctx_get0_libctx(ptr noundef %6) #7
  %8 = tail call i32 @ossl_prov_is_running() #7
  %.not = icmp eq i32 %8, 0
  br i1 %.not, label %kdf_hkdf_set_ctx_params.exit.thread42, label %9

9:                                                ; preds = %4
  %10 = icmp eq ptr %3, null
  br i1 %10, label %kdf_hkdf_set_ctx_params.exit.thread, label %ossl_param_is_empty.exit.i

ossl_param_is_empty.exit.i:                       ; preds = %9
  %11 = load ptr, ptr %3, align 8, !tbaa !27
  %.not.i = icmp eq ptr %11, null
  br i1 %.not.i, label %kdf_hkdf_set_ctx_params.exit.thread, label %12

12:                                               ; preds = %ossl_param_is_empty.exit.i
  %13 = tail call fastcc i32 @hkdf_common_set_ctx_params(ptr noundef nonnull %0, ptr noundef nonnull %3)
  %.not7.i = icmp eq i32 %13, 0
  br i1 %.not7.i, label %kdf_hkdf_set_ctx_params.exit.thread42, label %kdf_hkdf_set_ctx_params.exit

kdf_hkdf_set_ctx_params.exit:                     ; preds = %12
  %14 = getelementptr inbounds nuw i8, ptr %0, i64 120
  %15 = getelementptr inbounds nuw i8, ptr %0, i64 128
  %16 = tail call i32 @ossl_param_get1_concat_octet_string(ptr noundef nonnull %3, ptr noundef nonnull @.str.7, ptr noundef nonnull %14, ptr noundef nonnull %15, i64 noundef 32768) #7
  %.not45 = icmp eq i32 %16, 0
  br i1 %.not45, label %kdf_hkdf_set_ctx_params.exit.thread42, label %kdf_hkdf_set_ctx_params.exit.thread

kdf_hkdf_set_ctx_params.exit.thread:              ; preds = %9, %ossl_param_is_empty.exit.i, %kdf_hkdf_set_ctx_params.exit
  %17 = getelementptr inbounds nuw i8, ptr %0, i64 16
  %18 = tail call ptr @ossl_prov_digest_md(ptr noundef nonnull %17) #7
  %19 = icmp eq ptr %18, null
  br i1 %19, label %20, label %21

20:                                               ; preds = %kdf_hkdf_set_ctx_params.exit.thread
  tail call void @ERR_new() #7
  tail call void @ERR_set_debug(ptr noundef nonnull @.str, i32 noundef 225, ptr noundef nonnull @__func__.kdf_hkdf_derive) #7
  tail call void (i32, i32, ptr, ...) @ERR_set_error(i32 noundef 57, i32 noundef 129, ptr noundef null) #7
  br label %kdf_hkdf_set_ctx_params.exit.thread42

21:                                               ; preds = %kdf_hkdf_set_ctx_params.exit.thread
  %22 = getelementptr inbounds nuw i8, ptr %0, i64 56
  %23 = load ptr, ptr %22, align 8, !tbaa !16
  %24 = icmp eq ptr %23, null
  br i1 %24, label %25, label %26

25:                                               ; preds = %21
  tail call void @ERR_new() #7
  tail call void @ERR_set_debug(ptr noundef nonnull @.str, i32 noundef 229, ptr noundef nonnull @__func__.kdf_hkdf_derive) #7
  tail call void (i32, i32, ptr, ...) @ERR_set_error(i32 noundef 57, i32 noundef 128, ptr noundef null) #7
  br label %kdf_hkdf_set_ctx_params.exit.thread42

26:                                               ; preds = %21
  %27 = icmp eq i64 %2, 0
  br i1 %27, label %28, label %29

28:                                               ; preds = %26
  tail call void @ERR_new() #7
  tail call void @ERR_set_debug(ptr noundef nonnull @.str, i32 noundef 233, ptr noundef nonnull @__func__.kdf_hkdf_derive) #7
  tail call void (i32, i32, ptr, ...) @ERR_set_error(i32 noundef 57, i32 noundef 105, ptr noundef null) #7
  br label %kdf_hkdf_set_ctx_params.exit.thread42

29:                                               ; preds = %26
  %30 = getelementptr inbounds nuw i8, ptr %0, i64 8
  %31 = load i32, ptr %30, align 8, !tbaa !26
  switch i32 %31, label %32 [
    i32 2, label %58
    i32 1, label %50
  ]

32:                                               ; preds = %29
  %33 = getelementptr inbounds nuw i8, ptr %0, i64 40
  %34 = load ptr, ptr %33, align 8, !tbaa !14
  %35 = getelementptr inbounds nuw i8, ptr %0, i64 48
  %36 = load i64, ptr %35, align 8, !tbaa !15
  %37 = getelementptr inbounds nuw i8, ptr %0, i64 64
  %38 = load i64, ptr %37, align 8, !tbaa !17
  %39 = getelementptr inbounds nuw i8, ptr %0, i64 120
  %40 = load ptr, ptr %39, align 8, !tbaa !24
  %41 = getelementptr inbounds nuw i8, ptr %0, i64 128
  %42 = load i64, ptr %41, align 8, !tbaa !25
  call void @llvm.lifetime.start.p0(i64 64, ptr nonnull %5) #7
  %43 = tail call i32 @EVP_MD_get_size(ptr noundef nonnull %18) #7
  %44 = icmp slt i32 %43, 1
  br i1 %44, label %HKDF.exit, label %45

45:                                               ; preds = %32
  %46 = zext nneg i32 %43 to i64
  %47 = call fastcc i32 @HKDF_Extract(ptr noundef %7, ptr noundef nonnull %18, ptr noundef %34, i64 noundef %36, ptr noundef nonnull %23, i64 noundef %38, ptr noundef nonnull %5, i64 noundef %46)
  %.not.i38 = icmp eq i32 %47, 0
  br i1 %.not.i38, label %HKDF.exit, label %48

48:                                               ; preds = %45
  %49 = call fastcc i32 @HKDF_Expand(ptr noundef nonnull %18, ptr noundef nonnull %5, i64 noundef %46, ptr noundef %40, i64 noundef %42, ptr noundef %1, i64 noundef range(i64 1, 0) %2)
  call void @OPENSSL_cleanse(ptr noundef nonnull %5, i64 noundef 64) #7
  br label %HKDF.exit

HKDF.exit:                                        ; preds = %32, %45, %48
  %.0.i39 = phi i32 [ %49, %48 ], [ 0, %32 ], [ 0, %45 ]
  call void @llvm.lifetime.end.p0(i64 64, ptr nonnull %5) #7
  br label %kdf_hkdf_set_ctx_params.exit.thread42

50:                                               ; preds = %29
  %51 = getelementptr inbounds nuw i8, ptr %0, i64 40
  %52 = load ptr, ptr %51, align 8, !tbaa !14
  %53 = getelementptr inbounds nuw i8, ptr %0, i64 48
  %54 = load i64, ptr %53, align 8, !tbaa !15
  %55 = getelementptr inbounds nuw i8, ptr %0, i64 64
  %56 = load i64, ptr %55, align 8, !tbaa !17
  %57 = tail call fastcc i32 @HKDF_Extract(ptr noundef %7, ptr noundef %18, ptr noundef %52, i64 noundef %54, ptr noundef nonnull %23, i64 noundef %56, ptr noundef %1, i64 noundef %2)
  br label %kdf_hkdf_set_ctx_params.exit.thread42

58:                                               ; preds = %29
  %59 = getelementptr inbounds nuw i8, ptr %0, i64 64
  %60 = load i64, ptr %59, align 8, !tbaa !17
  %61 = getelementptr inbounds nuw i8, ptr %0, i64 120
  %62 = load ptr, ptr %61, align 8, !tbaa !24
  %63 = getelementptr inbounds nuw i8, ptr %0, i64 128
  %64 = load i64, ptr %63, align 8, !tbaa !25
  %65 = tail call fastcc i32 @HKDF_Expand(ptr noundef %18, ptr noundef nonnull %23, i64 noundef %60, ptr noundef %62, i64 noundef %64, ptr noundef %1, i64 noundef %2)
  br label %kdf_hkdf_set_ctx_params.exit.thread42

kdf_hkdf_set_ctx_params.exit.thread42:            ; preds = %12, %4, %kdf_hkdf_set_ctx_params.exit, %58, %50, %HKDF.exit, %28, %25, %20
  %.0 = phi i32 [ 0, %20 ], [ 0, %25 ], [ 0, %28 ], [ %.0.i39, %HKDF.exit ], [ %57, %50 ], [ %65, %58 ], [ 0, %kdf_hkdf_set_ctx_params.exit ], [ 0, %4 ], [ 0, %12 ]
  ret i32 %.0
}